target datalayout = "e-m:e-p270:32:32-p271:32:32-p272:64:64-i64:64-i128:128-f80:128-n8:16:32:64-S128"
target triple = "x86_64-pc-linux-gnu"

%struct.wtap_reader = type { i32, i64, i64, i32, %struct.wtap_reader_buf, %struct.wtap_reader_buf, i8, i64, i64, i32, i32, i8, i64, i8, i32, ptr, %struct.z_stream_s, i8, ptr, ptr, %struct.LZ4F_frameInfo_t, [19 x i8], ptr, ptr }
%struct.wtap_reader_buf = type { ptr, ptr, i32 }
%struct.z_stream_s = type { ptr, i32, i64, ptr, i32, i64, ptr, ptr, ptr, ptr, ptr, i32, i64, i64 }
%struct.LZ4F_frameInfo_t = type { i32, i32, i32, i32, i64, i32, i32 }

; Function Attrs: nounwind null_pointer_is_valid sspstrong uwtable
define hidden i32 @file_fstat(ptr noundef %0, ptr noundef %1, ptr noundef %2) #3 {
  %4 = alloca i32, align 4
  %5 = alloca ptr, align 8
  %6 = alloca ptr, align 8
  %7 = alloca ptr, align 8
  store ptr %0, ptr %5, align 8
  store ptr %1, ptr %6, align 8
  store ptr %2, ptr %7, align 8
  %8 = load ptr, ptr %5, align 8
  %9 = getelementptr inbounds nuw %struct.wtap_reader, ptr %8, i32 0, i32 0
  %10 = load i32, ptr %9, align 8
  %11 = load ptr, ptr %6, align 8
  %12 = call i32 @fstat(i32 noundef %10, ptr noundef %11) #14
  %13 = icmp eq i32 %12, -1
  br i1 %13, label %14, label %22

14:                                               ; preds = %3
  %15 = load ptr, ptr %7, align 8
  %16 = icmp ne ptr %15, null
  br i1 %16, label %17, label %21

17:                                               ; preds = %14
  %18 = call ptr @__errno_location() #17
  %19 = load i32, ptr %18, align 4
  %20 = load ptr, ptr %7, align 8
  store i32 %19, ptr %20, align 4
  br label %21

21:                                               ; preds = %17, %14
  store i32 -1, ptr %4, align 4
  br label %23

22:                                               ; preds = %3
  store i32 0, ptr %4, align 4
  br label %23

23:                                               ; preds = %22, %21
  %24 = load i32, ptr %4, align 4
  ret i32 %24
}