; Function Attrs: nofree nounwind null_pointer_is_valid sspstrong uwtable
define hidden range(i32 -1, 1) i32 @file_fstat(ptr noundef readonly captures(none) %0, ptr noundef captures(none) %1, ptr noundef writeonly captures(address_is_null) %2) local_unnamed_addr #15 {
  %4 = load i32, ptr %0, align 8
  %5 = tail call i32 @fstat(i32 noundef %4, ptr noundef %1) #21
  %6 = icmp eq i32 %5, -1
  br i1 %6, label %7, label %11

7:                                                ; preds = %3
  %.not = icmp eq ptr %2, null
  br i1 %.not, label %11, label %8

8:                                                ; preds = %7
  %9 = tail call ptr @__errno_location() #23
  %10 = load i32, ptr %9, align 4
  store i32 %10, ptr %2, align 4
  br label %11

11:                                               ; preds = %3, %7, %8
  %.0 = phi i32 [ -1, %8 ], [ -1, %7 ], [ 0, %3 ]
  ret i32 %.0
}